target datalayout = "e-m:e-p270:32:32-p271:32:32-p272:64:64-i64:64-i128:128-f80:128-n8:16:32:64-S128"
target triple = "x86_64-pc-linux-gnu"

; Function Attrs: nounwind uwtable
define internal void @premultiplyf32(ptr noundef %0, ptr noundef %1, ptr noundef %2, i64 noundef %3, i64 noundef %4, i64 noundef %5, i32 noundef %6, i32 noundef %7, i32 noundef %8, i32 noundef %9, i32 noundef %10) #1 {
  %12 = alloca ptr, align 8
  %13 = alloca ptr, align 8
  %14 = alloca ptr, align 8
  %15 = alloca i64, align 8
  %16 = alloca i64, align 8
  %17 = alloca i64, align 8
  %18 = alloca i32, align 4
  %19 = alloca i32, align 4
  %20 = alloca i32, align 4
  %21 = alloca i32, align 4
  %22 = alloca i32, align 4
  %23 = alloca ptr, align 8
  %24 = alloca ptr, align 8
  %25 = alloca ptr, align 8
  %26 = alloca i32, align 4
  %27 = alloca i32, align 4
  store ptr %0, ptr %12, align 8, !tbaa !91
  store ptr %1, ptr %13, align 8, !tbaa !91
  store ptr %2, ptr %14, align 8, !tbaa !91
  store i64 %3, ptr %15, align 8, !tbaa !50
  store i64 %4, ptr %16, align 8, !tbaa !50
  store i64 %5, ptr %17, align 8, !tbaa !50
  store i32 %6, ptr %18, align 4, !tbaa !37
  store i32 %7, ptr %19, align 4, !tbaa !37
  store i32 %8, ptr %20, align 4, !tbaa !37
  store i32 %9, ptr %21, align 4, !tbaa !37
  store i32 %10, ptr %22, align 4, !tbaa !37
  call void @llvm.lifetime.start.p0(i64 8, ptr %23) #11
  %28 = load ptr, ptr %12, align 8, !tbaa !91
  store ptr %28, ptr %23, align 8, !tbaa !109
  call void @llvm.lifetime.start.p0(i64 8, ptr %24) #11
  %29 = load ptr, ptr %13, align 8, !tbaa !91
  store ptr %29, ptr %24, align 8, !tbaa !109
  call void @llvm.lifetime.start.p0(i64 8, ptr %25) #11
  %30 = load ptr, ptr %14, align 8, !tbaa !91
  store ptr %30, ptr %25, align 8, !tbaa !109
  call void @llvm.lifetime.start.p0(i64 4, ptr %26) #11
  call void @llvm.lifetime.start.p0(i64 4, ptr %27) #11
  store i32 0, ptr %27, align 4, !tbaa !37
  br label %31

31:                                               ; preds = %72, %11
  %32 = load i32, ptr %27, align 4, !tbaa !37
  %33 = load i32, ptr %19, align 4, !tbaa !37
  %34 = icmp slt i32 %32, %33
  br i1 %34, label %35, label %75

35:                                               ; preds = %31
  store i32 0, ptr %26, align 4, !tbaa !37
  br label %36

36:                                               ; preds = %56, %35
  %37 = load i32, ptr %26, align 4, !tbaa !37
  %38 = load i32, ptr %18, align 4, !tbaa !37
  %39 = icmp slt i32 %37, %38
  br i1 %39, label %40, label %59

40:                                               ; preds = %36
  %41 = load ptr, ptr %23, align 8, !tbaa !109
  %42 = load i32, ptr %26, align 4, !tbaa !37
  %43 = sext i32 %42 to i64
  %44 = getelementptr inbounds float, ptr %41, i64 %43
  %45 = load float, ptr %44, align 4, !tbaa !111
  %46 = load ptr, ptr %24, align 8, !tbaa !109
  %47 = load i32, ptr %26, align 4, !tbaa !37
  %48 = sext i32 %47 to i64
  %49 = getelementptr inbounds float, ptr %46, i64 %48
  %50 = load float, ptr %49, align 4, !tbaa !111
  %51 = fmul nsz float %45, %50
  %52 = load ptr, ptr %25, align 8, !tbaa !109
  %53 = load i32, ptr %26, align 4, !tbaa !37
  %54 = sext i32 %53 to i64
  %55 = getelementptr inbounds float, ptr %52, i64 %54
  store float %51, ptr %55, align 4, !tbaa !111
  br label %56

56:                                               ; preds = %40
  %57 = load i32, ptr %26, align 4, !tbaa !37
  %58 = add nsw i32 %57, 1
  store i32 %58, ptr %26, align 4, !tbaa !37
  br label %36, !llvm.loop !131

59:                                               ; preds = %36
  %60 = load i64, ptr %17, align 8, !tbaa !50
  %61 = sdiv i64 %60, 4
  %62 = load ptr, ptr %25, align 8, !tbaa !109
  %63 = getelementptr inbounds float, ptr %62, i64 %61
  store ptr %63, ptr %25, align 8, !tbaa !109
  %64 = load i64, ptr %15, align 8, !tbaa !50
  %65 = sdiv i64 %64, 4
  %66 = load ptr, ptr %23, align 8, !tbaa !109
  %67 = getelementptr inbounds float, ptr %66, i64 %65
  store ptr %67, ptr %23, align 8, !tbaa !109
  %68 = load i64, ptr %16, align 8, !tbaa !50
  %69 = sdiv i64 %68, 4
  %70 = load ptr, ptr %24, align 8, !tbaa !109
  %71 = getelementptr inbounds float, ptr %70, i64 %69
  store ptr %71, ptr %24, align 8, !tbaa !109
  br label %72

72:                                               ; preds = %59
  %73 = load i32, ptr %27, align 4, !tbaa !37
  %74 = add nsw i32 %73, 1
  store i32 %74, ptr %27, align 4, !tbaa !37
  br label %31, !llvm.loop !132

75:                                               ; preds = %31
  call void @llvm.lifetime.end.p0(i64 4, ptr %27) #11
  call void @llvm.lifetime.end.p0(i64 4, ptr %26) #11
  call void @llvm.lifetime.end.p0(i64 8, ptr %25) #11
  call void @llvm.lifetime.end.p0(i64 8, ptr %24) #11
  call void @llvm.lifetime.end.p0(i64 8, ptr %23) #11
  ret void
}