; Function Attrs: nofree norecurse nosync nounwind memory(argmem: readwrite) uwtable
define internal void @premultiplyf32(ptr noundef readonly captures(none) %0, ptr noundef readonly captures(none) %1, ptr noundef writeonly captures(none) %2, i64 noundef %3, i64 noundef %4, i64 noundef %5, i32 noundef %6, i32 noundef %7, i32 %8, i32 %9, i32 %10) #5 {
  %12 = icmp sgt i32 %7, 0
  br i1 %12, label %.preheader.lr.ph, label %._crit_edge29

.preheader.lr.ph:                                 ; preds = %11
  %13 = icmp sgt i32 %6, 0
  %14 = sdiv i64 %5, 4
  %15 = sdiv i64 %3, 4
  %16 = sdiv i64 %4, 4
  br i1 %13, label %.preheader.us.preheader, label %._crit_edge29

.preheader.us.preheader:                          ; preds = %.preheader.lr.ph
  %wide.trip.count = zext nneg i32 %6 to i64
  br label %.preheader.us

.preheader.us:                                    ; preds = %.preheader.us.preheader, %._crit_edge.us
  %.028.us = phi i32 [ %27, %._crit_edge.us ], [ 0, %.preheader.us.preheader ]
  %.02127.us = phi ptr [ %24, %._crit_edge.us ], [ %2, %.preheader.us.preheader ]
  %.02226.us = phi ptr [ %26, %._crit_edge.us ], [ %1, %.preheader.us.preheader ]
  %.02325.us = phi ptr [ %25, %._crit_edge.us ], [ %0, %.preheader.us.preheader ]
  br label %17

17:                                               ; preds = %.preheader.us, %17
  %indvars.iv = phi i64 [ 0, %.preheader.us ], [ %indvars.iv.next, %17 ]
  %18 = getelementptr inbounds nuw float, ptr %.02325.us, i64 %indvars.iv
  %19 = load float, ptr %18, align 4, !tbaa !93
  %20 = getelementptr inbounds nuw float, ptr %.02226.us, i64 %indvars.iv
  %21 = load float, ptr %20, align 4, !tbaa !93
  %22 = fmul nsz float %19, %21
  %23 = getelementptr inbounds nuw float, ptr %.02127.us, i64 %indvars.iv
  store float %22, ptr %23, align 4, !tbaa !93
  %indvars.iv.next = add nuw nsw i64 %indvars.iv, 1
  %exitcond.not = icmp eq i64 %indvars.iv.next, %wide.trip.count
  br i1 %exitcond.not, label %._crit_edge.us, label %17, !llvm.loop !113

._crit_edge.us:                                   ; preds = %17
  %24 = getelementptr inbounds float, ptr %.02127.us, i64 %14
  %25 = getelementptr inbounds float, ptr %.02325.us, i64 %15
  %26 = getelementptr inbounds float, ptr %.02226.us, i64 %16
  %27 = add nuw nsw i32 %.028.us, 1
  %exitcond32.not = icmp eq i32 %27, %7
  br i1 %exitcond32.not, label %._crit_edge29, label %.preheader.us, !llvm.loop !114

._crit_edge29:                                    ; preds = %._crit_edge.us, %.preheader.lr.ph, %11
  ret void
}